; Function Attrs: nounwind uwtable
define zeroext range(i8 0, 2) i8 @l___private_Lean_Meta_CompletionName_0__Lean_Meta_isInternalNameModuloPrivate(ptr noundef %0) local_unnamed_addr #0 {
  br label %.backedge

.backedge:                                        ; preds = %.backedge.backedge, %1
  %.018 = phi ptr [ %0, %1 ], [ %.018.be, %.backedge.backedge ]
  %2 = ptrtoint ptr %.018 to i64
  %3 = and i64 %2, 1
  %.not.i = icmp eq i64 %3, 0
  br i1 %.not.i, label %7, label %4

4:                                                ; preds = %.backedge
  %5 = lshr i64 %2, 1
  %6 = trunc i64 %5 to i32
  br label %lean_obj_tag.exit

7:                                                ; preds = %.backedge
  %8 = getelementptr i8, ptr %.018, i64 4
  %.val.i = load i32, ptr %8, align 4
  %9 = lshr i32 %.val.i, 24
  br label %lean_obj_tag.exit

lean_obj_tag.exit:                                ; preds = %4, %7
  %.0.i = phi i32 [ %6, %4 ], [ %9, %7 ]
  switch i32 %.0.i, label %19 [
    i32 0, label %22
    i32 1, label %10
  ]

10:                                               ; preds = %lean_obj_tag.exit
  %11 = getelementptr inbounds nuw i8, ptr %.018, i64 8
  %12 = load ptr, ptr %11, align 8, !tbaa !4
  %13 = getelementptr inbounds nuw i8, ptr %.018, i64 16
  %14 = load ptr, ptr %13, align 8, !tbaa !4
  %15 = tail call i32 @lean_string_utf8_get(ptr noundef %14, ptr noundef nonnull inttoptr (i64 1 to ptr)) #3
  %.not = icmp eq i32 %15, 95
  br i1 %.not, label %16, label %.backedge.backedge

.backedge.backedge:                               ; preds = %10, %19, %16
  %.018.be = phi ptr [ %21, %19 ], [ %12, %16 ], [ %12, %10 ]
  br label %.backedge

16:                                               ; preds = %10
  %17 = load ptr, ptr @l_Lean_privateHeader, align 8, !tbaa !4
  %18 = tail call zeroext i8 @lean_name_eq(ptr noundef nonnull %.018, ptr noundef %17) #3
  %.not25 = icmp eq i8 %18, 0
  br i1 %.not25, label %22, label %.backedge.backedge

19:                                               ; preds = %lean_obj_tag.exit
  %20 = getelementptr inbounds nuw i8, ptr %.018, i64 8
  %21 = load ptr, ptr %20, align 8, !tbaa !4
  br label %.backedge.backedge

22:                                               ; preds = %16, %lean_obj_tag.exit
  %.1 = phi i8 [ 1, %16 ], [ 0, %lean_obj_tag.exit ]
  ret i8 %.1
}